target datalayout = "e-m:e-p270:32:32-p271:32:32-p272:64:64-i64:64-i128:128-f80:128-n8:16:32:64-S128"
target triple = "x86_64-pc-linux-gnu"

%struct.b2World = type { %struct.b2ArenaAllocator, %struct.b2BroadPhase, %struct.b2ConstraintGraph, %struct.b2IdPool, %struct.b2BodyArray, %struct.b2IdPool, %struct.b2SolverSetArray, %struct.b2IdPool, %struct.b2JointArray, %struct.b2IdPool, %struct.b2ContactArray, %struct.b2IdPool, %struct.b2IslandArray, %struct.b2IdPool, %struct.b2IdPool, %struct.b2ShapeArray, %struct.b2ChainShapeArray, %struct.b2SensorArray, %struct.b2TaskContextArray, %struct.b2SensorTaskContextArray, %struct.b2BodyMoveEventArray, %struct.b2SensorBeginTouchEventArray, %struct.b2ContactBeginTouchEventArray, [2 x %struct.b2SensorEndTouchEventArray], [2 x %struct.b2ContactEndTouchEventArray], i32, %struct.b2ContactHitEventArray, %struct.b2BitSet, %struct.b2BitSet, %struct.b2BitSet, i64, i32, %struct.b2Vec2, float, float, float, float, float, float, float, float, ptr, ptr, i16, %struct.b2Profile, ptr, ptr, ptr, ptr, i32, ptr, ptr, ptr, ptr, ptr, float, i32, i32, i16, i8, i8, i8, i8, i8, i8 }
%struct.b2ArenaAllocator = type { ptr, i32, i32, i32, i32, %struct.b2ArenaEntryArray }
%struct.b2ArenaEntryArray = type { ptr, i32, i32 }
%struct.b2BroadPhase = type { [3 x %struct.b2DynamicTree], i32, %struct.b2HashSet, %struct.b2IntArray, ptr, ptr, i32, %struct.b2AtomicInt, %struct.b2HashSet }
%struct.b2DynamicTree = type { ptr, i32, i32, i32, i32, i32, ptr, ptr, ptr, ptr, i32 }
%struct.b2IntArray = type { ptr, i32, i32 }
%struct.b2AtomicInt = type { i32 }
%struct.b2HashSet = type { ptr, i32, i32 }
%struct.b2ConstraintGraph = type { [12 x %struct.b2GraphColor] }
%struct.b2GraphColor = type { %struct.b2BitSet, %struct.b2ContactSimArray, %struct.b2JointSimArray, %union.anon }
%struct.b2ContactSimArray = type { ptr, i32, i32 }
%struct.b2JointSimArray = type { ptr, i32, i32 }
%union.anon = type { ptr }
%struct.b2BodyArray = type { ptr, i32, i32 }
%struct.b2SolverSetArray = type { ptr, i32, i32 }
%struct.b2JointArray = type { ptr, i32, i32 }
%struct.b2ContactArray = type { ptr, i32, i32 }
%struct.b2IslandArray = type { ptr, i32, i32 }
%struct.b2IdPool = type { %struct.b2IntArray, i32 }
%struct.b2ShapeArray = type { ptr, i32, i32 }
%struct.b2ChainShapeArray = type { ptr, i32, i32 }
%struct.b2SensorArray = type { ptr, i32, i32 }
%struct.b2TaskContextArray = type { ptr, i32, i32 }
%struct.b2SensorTaskContextArray = type { ptr, i32, i32 }
%struct.b2BodyMoveEventArray = type { ptr, i32, i32 }
%struct.b2SensorBeginTouchEventArray = type { ptr, i32, i32 }
%struct.b2ContactBeginTouchEventArray = type { ptr, i32, i32 }
%struct.b2SensorEndTouchEventArray = type { ptr, i32, i32 }
%struct.b2ContactEndTouchEventArray = type { ptr, i32, i32 }
%struct.b2ContactHitEventArray = type { ptr, i32, i32 }
%struct.b2BitSet = type { ptr, i32, i32 }
%struct.b2Vec2 = type { float, float }
%struct.b2Profile = type { float, float, float, float, float, float, float, float, float, float, float, float, float, float, float, float, float, float, float, float, float, float }
%struct.b2ShapeId = type { i32, i16, i16 }
%struct.b2Shape = type { i32, i32, i32, i32, i32, i32, float, float, float, float, float, i32, %struct.b2AABB, %struct.b2AABB, %struct.b2Vec2, i32, %struct.b2Filter, ptr, i32, %union.anon.0, i16, i8, i8, i8, i8 }
%struct.b2AABB = type { %struct.b2Vec2, %struct.b2Vec2 }
%struct.b2Filter = type { i64, i64, i32 }
%union.anon.0 = type { %struct.b2Polygon }
%struct.b2Polygon = type { [8 x %struct.b2Vec2], [8 x %struct.b2Vec2], %struct.b2Vec2, float, i32 }

@b2_worlds = hidden global [128 x %struct.b2World] zeroinitializer, align 16

; Function Attrs: nounwind uwtable
define zeroext i1 @b2Shape_IsValid(i64 %0) #0 {
  %2 = alloca i1, align 1
  %3 = alloca %struct.b2ShapeId, align 4
  %4 = alloca ptr, align 8
  %5 = alloca i32, align 4
  %6 = alloca i32, align 4
  %7 = alloca ptr, align 8
  store i64 %0, ptr %3, align 4
  %8 = getelementptr inbounds nuw %struct.b2ShapeId, ptr %3, i32 0, i32 1
  %9 = load i16, ptr %8, align 4, !tbaa !291
  %10 = zext i16 %9 to i32
  %11 = icmp sle i32 128, %10
  br i1 %11, label %12, label %13

12:                                               ; preds = %1
  store i1 false, ptr %2, align 1
  br label %67

13:                                               ; preds = %1
  call void @llvm.lifetime.start.p0(i64 8, ptr %4) #10
  %14 = getelementptr inbounds nuw %struct.b2ShapeId, ptr %3, i32 0, i32 1
  %15 = load i16, ptr %14, align 4, !tbaa !291
  %16 = zext i16 %15 to i32
  %17 = sext i32 %16 to i64
  %18 = getelementptr inbounds %struct.b2World, ptr @b2_worlds, i64 %17
  store ptr %18, ptr %4, align 8, !tbaa !47
  %19 = load ptr, ptr %4, align 8, !tbaa !47
  %20 = getelementptr inbounds nuw %struct.b2World, ptr %19, i32 0, i32 58
  %21 = load i16, ptr %20, align 4, !tbaa !126
  %22 = zext i16 %21 to i32
  %23 = getelementptr inbounds nuw %struct.b2ShapeId, ptr %3, i32 0, i32 1
  %24 = load i16, ptr %23, align 4, !tbaa !291
  %25 = zext i16 %24 to i32
  %26 = icmp ne i32 %22, %25
  br i1 %26, label %27, label %28

27:                                               ; preds = %13
  store i1 false, ptr %2, align 1
  store i32 1, ptr %5, align 4
  br label %66

28:                                               ; preds = %13
  call void @llvm.lifetime.start.p0(i64 4, ptr %6) #10
  %29 = getelementptr inbounds nuw %struct.b2ShapeId, ptr %3, i32 0, i32 0
  %30 = load i32, ptr %29, align 4, !tbaa !289
  %31 = sub nsw i32 %30, 1
  store i32 %31, ptr %6, align 4, !tbaa !3
  %32 = load i32, ptr %6, align 4, !tbaa !3
  %33 = icmp slt i32 %32, 0
  br i1 %33, label %41, label %34

34:                                               ; preds = %28
  %35 = load ptr, ptr %4, align 8, !tbaa !47
  %36 = getelementptr inbounds nuw %struct.b2World, ptr %35, i32 0, i32 15
  %37 = getelementptr inbounds nuw %struct.b2ShapeArray, ptr %36, i32 0, i32 1
  %38 = load i32, ptr %37, align 8, !tbaa !446
  %39 = load i32, ptr %6, align 4, !tbaa !3
  %40 = icmp sle i32 %38, %39
  br i1 %40, label %41, label %42

41:                                               ; preds = %34, %28
  store i1 false, ptr %2, align 1
  store i32 1, ptr %5, align 4
  br label %65

42:                                               ; preds = %34
  call void @llvm.lifetime.start.p0(i64 8, ptr %7) #10
  %43 = load ptr, ptr %4, align 8, !tbaa !47
  %44 = getelementptr inbounds nuw %struct.b2World, ptr %43, i32 0, i32 15
  %45 = getelementptr inbounds nuw %struct.b2ShapeArray, ptr %44, i32 0, i32 0
  %46 = load ptr, ptr %45, align 8, !tbaa !277
  %47 = load i32, ptr %6, align 4, !tbaa !3
  %48 = sext i32 %47 to i64
  %49 = getelementptr inbounds %struct.b2Shape, ptr %46, i64 %48
  store ptr %49, ptr %7, align 8, !tbaa !113
  %50 = load ptr, ptr %7, align 8, !tbaa !113
  %51 = getelementptr inbounds nuw %struct.b2Shape, ptr %50, i32 0, i32 0
  %52 = load i32, ptr %51, align 8, !tbaa !285
  %53 = icmp eq i32 %52, -1
  br i1 %53, label %54, label %55

54:                                               ; preds = %42
  store i1 false, ptr %2, align 1
  store i32 1, ptr %5, align 4
  br label %64

55:                                               ; preds = %42
  %56 = getelementptr inbounds nuw %struct.b2ShapeId, ptr %3, i32 0, i32 2
  %57 = load i16, ptr %56, align 2, !tbaa !293
  %58 = zext i16 %57 to i32
  %59 = load ptr, ptr %7, align 8, !tbaa !113
  %60 = getelementptr inbounds nuw %struct.b2Shape, ptr %59, i32 0, i32 20
  %61 = load i16, ptr %60, align 4, !tbaa !292
  %62 = zext i16 %61 to i32
  %63 = icmp eq i32 %58, %62
  store i1 %63, ptr %2, align 1
  store i32 1, ptr %5, align 4
  br label %64

64:                                               ; preds = %55, %54
  call void @llvm.lifetime.end.p0(i64 8, ptr %7) #10
  br label %65

65:                                               ; preds = %64, %41
  call void @llvm.lifetime.end.p0(i64 4, ptr %6) #10
  br label %66

66:                                               ; preds = %65, %27
  call void @llvm.lifetime.end.p0(i64 8, ptr %4) #10
  br label %67

67:                                               ; preds = %66, %12
  %68 = load i1, ptr %2, align 1
  ret i1 %68
}